target datalayout = "e-m:e-p270:32:32-p271:32:32-p272:64:64-i64:64-i128:128-f80:128-n8:16:32:64-S128"
target triple = "x86_64-pc-linux-gnu"

%struct.HEVCContext = type { ptr, ptr, ptr, i32, [2 x %struct.HEVCLayerContext], i32, i32, i32, i8, ptr, %struct.HEVCParamSets, %struct.HEVCSEI, ptr, [7 x %struct.RefPicList], ptr, ptr, %struct.SliceHeader, i32, i32, ptr, ptr, i32, i32, i32, i32, i32, i32, i32, %struct.HEVCPredContext, %struct.HEVCDSPContext, %struct.VideoDSPContext, %struct.BswapDSPContext, %struct.H274FilmGrainDatabase, ptr, i32, %struct.HEVCCABACState, ptr, i32, i32, ptr, %struct.H2645Packet, i32, i32, i32, i32, ptr, i32, ptr, i32, ptr, i32, i32, i32, i32, i64, ptr, %struct.DOVIContext }
%struct.HEVCLayerContext = type { [32 x %struct.HEVCFrame], ptr, ptr, i32, i32, ptr, ptr, ptr, ptr, ptr, ptr, ptr, ptr, ptr, ptr, ptr, ptr, [3 x ptr], [3 x ptr], ptr, ptr }
%struct.HEVCFrame = type { %union.anon, ptr, i32, ptr, ptr, ptr, i32, i32, ptr, ptr, i32, ptr, i32, i8 }
%union.anon = type { %struct.ProgressFrame }
%struct.ProgressFrame = type { ptr, ptr }
%struct.HEVCParamSets = type { [16 x ptr], [16 x ptr], [64 x ptr] }
%struct.HEVCSEI = type { %struct.H2645SEI, %struct.HEVCSEIPictureHash, %struct.HEVCSEIPictureTiming, i32, %struct.HEVCSEITimeCode, %struct.HEVCSEITDRDI, %struct.HEVCSEIRecoveryPoint }
%struct.H2645SEI = type { %struct.H2645SEIA53Caption, %struct.H2645SEIAFD, %struct.HEVCSEIDynamicHDRPlus, %struct.HEVCSEIDynamicHDRVivid, %struct.HEVCSEILCEVC, %struct.H2645SEIUnregistered, %struct.H2645SEIFramePacking, %struct.H2645SEIDisplayOrientation, %struct.H2645SEIAlternativeTransfer, %struct.H2645SEIAmbientViewingEnvironment, %struct.H2645SEIMasteringDisplay, %struct.H2645SEIContentLight, %struct.AVFilmGrainAFGS1Params, ptr }
%struct.H2645SEIA53Caption = type { ptr }
%struct.H2645SEIAFD = type { i32, i8 }
%struct.HEVCSEIDynamicHDRPlus = type { ptr }
%struct.HEVCSEIDynamicHDRVivid = type { ptr }
%struct.HEVCSEILCEVC = type { ptr }
%struct.H2645SEIUnregistered = type { ptr, i32, i32 }
%struct.H2645SEIFramePacking = type { i32, i32, i32, i32, i32, i32, i32, i32 }
%struct.H2645SEIDisplayOrientation = type { i32, i32, i32, i32 }
%struct.H2645SEIAlternativeTransfer = type { i32, i32 }
%struct.H2645SEIAmbientViewingEnvironment = type { i32, i32, i16, i16 }
%struct.H2645SEIMasteringDisplay = type { i32, [3 x [2 x i16]], [2 x i16], i32, i32 }
%struct.H2645SEIContentLight = type { i32, i16, i16 }
%struct.AVFilmGrainAFGS1Params = type { i32, [8 x ptr] }
%struct.HEVCSEIPictureHash = type { [3 x [16 x i8]], i8 }
%struct.HEVCSEIPictureTiming = type { i32 }
%struct.HEVCSEITimeCode = type { i32, i8, [3 x i8], [3 x i8], [3 x i8], [3 x i8], [3 x i8], [3 x i8], [3 x i16], [3 x i8], [3 x i8], [3 x i8], [3 x i8], [3 x i8], [3 x i8], [3 x i8], [3 x i32] }
%struct.HEVCSEITDRDI = type { i8, i8, i8, i8, [32 x i16], [32 x i16], [32 x i8], [32 x i8], [32 x i8], [32 x i8], [32 x i8], [32 x i16], i8 }
%struct.HEVCSEIRecoveryPoint = type { i16, i8, i8, i8 }
%struct.RefPicList = type { [16 x ptr], [16 x i32], [16 x i32], i32 }
%struct.SliceHeader = type { i32, i32, i32, i32, i32, i32, i8, i8, i8, i8, i8, i32, i32, %struct.ShortTermRPS, ptr, i32, %struct.LongTermRPS, [2 x [32 x i32]], [2 x i8], i8, i8, [2 x i32], [3 x i8], i8, i8, i8, i8, i8, i32, i32, i32, i32, i32, i32, i32, i8, i32, i32, i8, i8, ptr, ptr, ptr, i32, i8, i8, i16, [16 x i16], [16 x [2 x i16]], [16 x [2 x i16]], [16 x i16], [16 x i16], [16 x [2 x i16]], [16 x i16], [16 x [2 x i16]], i32, i32 }
%struct.ShortTermRPS = type { [32 x i32], i32, i8, i8, i8, i8, i16, i8 }
%struct.LongTermRPS = type { [32 x i32], [32 x i8], [32 x i8], i8 }
%struct.HEVCPredContext = type { [4 x ptr], [4 x ptr], ptr, [4 x ptr] }
%struct.HEVCDSPContext = type { ptr, [4 x ptr], ptr, ptr, ptr, [4 x ptr], [4 x ptr], [5 x ptr], [5 x ptr], [2 x ptr], [10 x [2 x [2 x ptr]]], [10 x [2 x [2 x ptr]]], [10 x [2 x [2 x ptr]]], [10 x [2 x [2 x ptr]]], [10 x [2 x [2 x ptr]]], [10 x [2 x [2 x ptr]]], [10 x [2 x [2 x ptr]]], [10 x [2 x [2 x ptr]]], [10 x [2 x [2 x ptr]]], [10 x [2 x [2 x ptr]]], ptr, ptr, ptr, ptr, ptr, ptr, ptr, ptr }
%struct.VideoDSPContext = type { ptr, ptr }
%struct.BswapDSPContext = type { ptr, ptr }
%struct.H274FilmGrainDatabase = type { [13 x [13 x [64 x [64 x i8]]]], [13 x i16], [64 x [64 x i16]] }
%struct.HEVCCABACState = type { [199 x i8], [4 x i8] }
%struct.H2645Packet = type { ptr, %struct.H2645RBSP, i32, i32, i32 }
%struct.H2645RBSP = type { ptr, ptr, i32, i32 }
%struct.DOVIContext = type { ptr, i32, %struct.AVDOVIDecoderConfigurationRecord, %struct.AVDOVIRpuDataHeader, ptr, ptr, ptr, ptr, [16 x ptr], ptr, i32 }
%struct.AVDOVIDecoderConfigurationRecord = type { i8, i8, i8, i8, i8, i8, i8, i8, i8 }
%struct.AVDOVIRpuDataHeader = type { i8, i16, i8, i8, i8, i8, i8, i8, i8, i8, i8, i8, i8, i8, i8, i8, i8 }
%struct.AVCodecContext = type { ptr, i32, i32, ptr, i32, i32, ptr, ptr, ptr, i64, i32, i32, ptr, i32, %struct.AVRational, %struct.AVRational, %struct.AVRational, i32, i32, i32, i32, i32, %struct.AVRational, i32, i32, i32, i32, i32, i32, i32, i32, i32, i32, i32, ptr, ptr, i32, float, float, float, float, float, float, float, float, float, i32, i32, i32, i32, i32, i32, i32, i32, i32, i32, i32, i32, ptr, ptr, ptr, i32, i32, i32, i32, i32, i32, i32, i32, i32, i32, %struct.AVChannelLayout, i32, i32, i32, i32, i32, i32, i32, i32, ptr, i32, i32, i32, float, float, i32, i32, i32, i32, i32, ptr, i64, i64, float, float, i32, i32, ptr, ptr, i32, i32, i32, i32, i32, ptr, ptr, ptr, ptr, i32, i32, [8 x i64], i32, i32, i32, i32, i32, i32, i32, ptr, ptr, i32, i32, i32, i32, i32, i32, i32, i32, i32, i32, ptr, ptr, i32, i32, ptr, ptr, ptr, ptr, i32, i32, i64, i32, i32, i64, ptr, i64, ptr, i32, ptr, i32 }
%struct.AVRational = type { i32, i32 }
%struct.AVChannelLayout = type { i32, i32, %union.anon.3, ptr }
%union.anon.3 = type { i64 }
%struct.HEVCLocalContext = type { [199 x i8], [4 x i8], i8, ptr, ptr, %struct.CABACContext, ptr, i8, i8, i32, %struct.TransformUnit, i8, i8, i8, i8, i32, i32, [8 x i8], [11360 x i8], [11360 x i8], [4096 x i16], i32, %struct.CodingUnit, %struct.PredictionUnit, %struct.NeighbourAvailable, i32, [128 x i8] }
%struct.CABACContext = type { i32, i32, ptr, ptr, ptr }
%struct.TransformUnit = type { i32, i32, i32, i32, i32, i8, i8, i8, i8, i8 }
%struct.CodingUnit = type { i32, i32, i32, i32, i8, i8, i8 }
%struct.PredictionUnit = type { i32, i32, [4 x i8], %struct.Mv, i8, [4 x i8], [4 x i8] }
%struct.Mv = type { i16, i16 }
%struct.NeighbourAvailable = type { i32, i32, i32, i32, i32, i32 }

; Function Attrs: inlinehint nounwind uwtable
define internal void @ff_hevc_reset_sei(ptr noundef %0) #6 {
  %2 = alloca ptr, align 8
  store ptr %0, ptr %2, align 8, !tbaa !253
  %3 = load ptr, ptr %2, align 8, !tbaa !253
  %4 = getelementptr inbounds nuw %struct.HEVCSEI, ptr %3, i32 0, i32 0
  call void @ff_h2645_sei_reset(ptr noundef %4)
  ret void
}

; Function Attrs: cold nounwind optsize uwtable
define internal i32 @hevc_init_context(ptr noundef %0) #3 {
  %2 = alloca i32, align 4
  %3 = alloca ptr, align 8
  %4 = alloca ptr, align 8
  %5 = alloca i32, align 4
  %6 = alloca i32, align 4
  %7 = alloca ptr, align 8
  %8 = alloca i32, align 4
  store ptr %0, ptr %3, align 8, !tbaa !81
  call void @llvm.lifetime.start.p0(i64 8, ptr %4) #12
  %9 = load ptr, ptr %3, align 8, !tbaa !81
  %10 = getelementptr inbounds nuw %struct.AVCodecContext, ptr %9, i32 0, i32 6
  %11 = load ptr, ptr %10, align 8, !tbaa !82
  store ptr %11, ptr %4, align 8, !tbaa !4
  %12 = load ptr, ptr %3, align 8, !tbaa !81
  %13 = load ptr, ptr %4, align 8, !tbaa !4
  %14 = getelementptr inbounds nuw %struct.HEVCContext, ptr %13, i32 0, i32 1
  store ptr %12, ptr %14, align 8, !tbaa !80
  %15 = call noalias ptr @av_mallocz(i64 noundef 31440)
  %16 = load ptr, ptr %4, align 8, !tbaa !4
  %17 = getelementptr inbounds nuw %struct.HEVCContext, ptr %16, i32 0, i32 2
  store ptr %15, ptr %17, align 8, !tbaa !233
  %18 = load ptr, ptr %4, align 8, !tbaa !4
  %19 = getelementptr inbounds nuw %struct.HEVCContext, ptr %18, i32 0, i32 2
  %20 = load ptr, ptr %19, align 8, !tbaa !233
  %21 = icmp ne ptr %20, null
  br i1 %21, label %23, label %22

22:                                               ; preds = %1
  store i32 -12, ptr %2, align 4
  store i32 1, ptr %5, align 4
  br label %122

23:                                               ; preds = %1
  %24 = load ptr, ptr %4, align 8, !tbaa !4
  %25 = getelementptr inbounds nuw %struct.HEVCContext, ptr %24, i32 0, i32 3
  store i32 1, ptr %25, align 8, !tbaa !234
  %26 = load ptr, ptr %4, align 8, !tbaa !4
  %27 = load ptr, ptr %4, align 8, !tbaa !4
  %28 = getelementptr inbounds nuw %struct.HEVCContext, ptr %27, i32 0, i32 2
  %29 = load ptr, ptr %28, align 8, !tbaa !233
  %30 = getelementptr inbounds %struct.HEVCLocalContext, ptr %29, i64 0
  %31 = getelementptr inbounds nuw %struct.HEVCLocalContext, ptr %30, i32 0, i32 4
  store ptr %26, ptr %31, align 8, !tbaa !235
  %32 = load ptr, ptr %3, align 8, !tbaa !81
  %33 = load ptr, ptr %4, align 8, !tbaa !4
  %34 = getelementptr inbounds nuw %struct.HEVCContext, ptr %33, i32 0, i32 2
  %35 = load ptr, ptr %34, align 8, !tbaa !233
  %36 = getelementptr inbounds %struct.HEVCLocalContext, ptr %35, i64 0
  %37 = getelementptr inbounds nuw %struct.HEVCLocalContext, ptr %36, i32 0, i32 3
  store ptr %32, ptr %37, align 16, !tbaa !244
  %38 = load ptr, ptr %4, align 8, !tbaa !4
  %39 = getelementptr inbounds nuw %struct.HEVCContext, ptr %38, i32 0, i32 35
  %40 = load ptr, ptr %4, align 8, !tbaa !4
  %41 = getelementptr inbounds nuw %struct.HEVCContext, ptr %40, i32 0, i32 2
  %42 = load ptr, ptr %41, align 8, !tbaa !233
  %43 = getelementptr inbounds %struct.HEVCLocalContext, ptr %42, i64 0
  %44 = getelementptr inbounds nuw %struct.HEVCLocalContext, ptr %43, i32 0, i32 6
  store ptr %39, ptr %44, align 16, !tbaa !245
  %45 = call ptr @av_container_fifo_alloc_avframe(i32 noundef 0)
  %46 = load ptr, ptr %4, align 8, !tbaa !4
  %47 = getelementptr inbounds nuw %struct.HEVCContext, ptr %46, i32 0, i32 9
  store ptr %45, ptr %47, align 8, !tbaa !151
  %48 = load ptr, ptr %4, align 8, !tbaa !4
  %49 = getelementptr inbounds nuw %struct.HEVCContext, ptr %48, i32 0, i32 9
  %50 = load ptr, ptr %49, align 8, !tbaa !151
  %51 = icmp ne ptr %50, null
  br i1 %51, label %53, label %52

52:                                               ; preds = %23
  store i32 -12, ptr %2, align 4
  store i32 1, ptr %5, align 4
  br label %122

53:                                               ; preds = %23
  call void @llvm.lifetime.start.p0(i64 4, ptr %6) #12
  store i32 0, ptr %6, align 4, !tbaa !70
  br label %54

54:                                               ; preds = %97, %53
  %55 = load i32, ptr %6, align 4, !tbaa !70
  %56 = sext i32 %55 to i64
  %57 = icmp ult i64 %56, 2
  br i1 %57, label %59, label %58

58:                                               ; preds = %54
  store i32 2, ptr %5, align 4
  br label %100

59:                                               ; preds = %54
  call void @llvm.lifetime.start.p0(i64 8, ptr %7) #12
  %60 = load ptr, ptr %4, align 8, !tbaa !4
  %61 = getelementptr inbounds nuw %struct.HEVCContext, ptr %60, i32 0, i32 4
  %62 = load i32, ptr %6, align 4, !tbaa !70
  %63 = sext i32 %62 to i64
  %64 = getelementptr inbounds [2 x %struct.HEVCLayerContext], ptr %61, i64 0, i64 %63
  store ptr %64, ptr %7, align 8, !tbaa !95
  call void @llvm.lifetime.start.p0(i64 4, ptr %8) #12
  store i32 0, ptr %8, align 4, !tbaa !70
  br label %65

65:                                               ; preds = %88, %59
  %66 = load i32, ptr %8, align 4, !tbaa !70
  %67 = sext i32 %66 to i64
  %68 = icmp ult i64 %67, 32
  br i1 %68, label %70, label %69

69:                                               ; preds = %65
  store i32 5, ptr %5, align 4
  br label %91

70:                                               ; preds = %65
  %71 = call ptr @av_frame_alloc()
  %72 = load ptr, ptr %7, align 8, !tbaa !95
  %73 = getelementptr inbounds nuw %struct.HEVCLayerContext, ptr %72, i32 0, i32 0
  %74 = load i32, ptr %8, align 4, !tbaa !70
  %75 = sext i32 %74 to i64
  %76 = getelementptr inbounds [32 x %struct.HEVCFrame], ptr %73, i64 0, i64 %75
  %77 = getelementptr inbounds nuw %struct.HEVCFrame, ptr %76, i32 0, i32 1
  store ptr %71, ptr %77, align 8, !tbaa !178
  %78 = load ptr, ptr %7, align 8, !tbaa !95
  %79 = getelementptr inbounds nuw %struct.HEVCLayerContext, ptr %78, i32 0, i32 0
  %80 = load i32, ptr %8, align 4, !tbaa !70
  %81 = sext i32 %80 to i64
  %82 = getelementptr inbounds [32 x %struct.HEVCFrame], ptr %79, i64 0, i64 %81
  %83 = getelementptr inbounds nuw %struct.HEVCFrame, ptr %82, i32 0, i32 1
  %84 = load ptr, ptr %83, align 8, !tbaa !178
  %85 = icmp ne ptr %84, null
  br i1 %85, label %87, label %86

86:                                               ; preds = %70
  store i32 -12, ptr %2, align 4
  store i32 1, ptr %5, align 4
  br label %91

87:                                               ; preds = %70
  br label %88

88:                                               ; preds = %87
  %89 = load i32, ptr %8, align 4, !tbaa !70
  %90 = add nsw i32 %89, 1
  store i32 %90, ptr %8, align 4, !tbaa !70
  br label %65, !llvm.loop !246

91:                                               ; preds = %86, %69
  call void @llvm.lifetime.end.p0(i64 4, ptr %8) #12
  %92 = load i32, ptr %5, align 4
  switch i32 %92, label %94 [
    i32 5, label %93
  ]

93:                                               ; preds = %91
  store i32 0, ptr %5, align 4
  br label %94

94:                                               ; preds = %93, %91
  call void @llvm.lifetime.end.p0(i64 8, ptr %7) #12
  %95 = load i32, ptr %5, align 4
  switch i32 %95, label %100 [
    i32 0, label %96
  ]

96:                                               ; preds = %94
  br label %97

97:                                               ; preds = %96
  %98 = load i32, ptr %6, align 4, !tbaa !70
  %99 = add nsw i32 %98, 1
  store i32 %99, ptr %6, align 4, !tbaa !70
  br label %54, !llvm.loop !247

100:                                              ; preds = %94, %58
  call void @llvm.lifetime.end.p0(i64 4, ptr %6) #12
  %101 = load i32, ptr %5, align 4
  switch i32 %101, label %122 [
    i32 2, label %102
  ]

102:                                              ; preds = %100
  %103 = call ptr @av_md5_alloc()
  %104 = load ptr, ptr %4, align 8, !tbaa !4
  %105 = getelementptr inbounds nuw %struct.HEVCContext, ptr %104, i32 0, i32 12
  store ptr %103, ptr %105, align 8, !tbaa !248
  %106 = load ptr, ptr %4, align 8, !tbaa !4
  %107 = getelementptr inbounds nuw %struct.HEVCContext, ptr %106, i32 0, i32 12
  %108 = load ptr, ptr %107, align 8, !tbaa !248
  %109 = icmp ne ptr %108, null
  br i1 %109, label %111, label %110

110:                                              ; preds = %102
  store i32 -12, ptr %2, align 4
  store i32 1, ptr %5, align 4
  br label %122

111:                                              ; preds = %102
  %112 = load ptr, ptr %4, align 8, !tbaa !4
  %113 = getelementptr inbounds nuw %struct.HEVCContext, ptr %112, i32 0, i32 31
  call void @ff_bswapdsp_init(ptr noundef %113)
  %114 = load ptr, ptr %3, align 8, !tbaa !81
  %115 = load ptr, ptr %4, align 8, !tbaa !4
  %116 = getelementptr inbounds nuw %struct.HEVCContext, ptr %115, i32 0, i32 56
  %117 = getelementptr inbounds nuw %struct.DOVIContext, ptr %116, i32 0, i32 0
  store ptr %114, ptr %117, align 8, !tbaa !249
  %118 = load ptr, ptr %4, align 8, !tbaa !4
  %119 = getelementptr inbounds nuw %struct.HEVCContext, ptr %118, i32 0, i32 24
  store i32 0, ptr %119, align 4, !tbaa !112
  %120 = load ptr, ptr %4, align 8, !tbaa !4
  %121 = getelementptr inbounds nuw %struct.HEVCContext, ptr %120, i32 0, i32 11
  call void @ff_hevc_reset_sei(ptr noundef %121)
  store i32 0, ptr %2, align 4
  store i32 1, ptr %5, align 4
  br label %122

122:                                              ; preds = %111, %110, %100, %52, %22
  call void @llvm.lifetime.end.p0(i64 8, ptr %4) #12
  %123 = load i32, ptr %2, align 4
  ret i32 %123
}