; Function Attrs: cold nounwind optsize uwtable
define internal fastcc range(i32 -12, 1) i32 @hevc_init_context(ptr noundef %0) unnamed_addr #3 {
  %2 = getelementptr inbounds nuw i8, ptr %0, i64 32
  %3 = load ptr, ptr %2, align 8, !tbaa !77
  %4 = getelementptr inbounds nuw i8, ptr %3, i64 8
  store ptr %0, ptr %4, align 8, !tbaa !76
  %5 = tail call noalias ptr @av_mallocz(i64 noundef 31440) #15
  %6 = getelementptr inbounds nuw i8, ptr %3, i64 16
  store ptr %5, ptr %6, align 8, !tbaa !230
  %.not = icmp eq ptr %5, null
  br i1 %.not, label %.loopexit, label %7

7:                                                ; preds = %1
  %8 = getelementptr inbounds nuw i8, ptr %3, i64 24
  store i32 1, ptr %8, align 8, !tbaa !231
  %9 = getelementptr inbounds nuw i8, ptr %5, i64 216
  store ptr %3, ptr %9, align 8, !tbaa !232
  %10 = getelementptr inbounds nuw i8, ptr %5, i64 208
  store ptr %0, ptr %10, align 16, !tbaa !242
  %11 = getelementptr inbounds nuw i8, ptr %3, i64 715724
  %12 = getelementptr inbounds nuw i8, ptr %5, i64 256
  store ptr %11, ptr %12, align 16, !tbaa !243
  %13 = tail call ptr @av_container_fifo_alloc_avframe(i32 noundef 0) #15
  %14 = getelementptr inbounds nuw i8, ptr %3, i64 7072
  store ptr %13, ptr %14, align 8, !tbaa !179
  %.not42 = icmp eq ptr %13, null
  br i1 %.not42, label %.loopexit, label %.preheader

.preheader:                                       ; preds = %7
  %15 = getelementptr inbounds nuw i8, ptr %3, i64 32
  br label %16

16:                                               ; preds = %.preheader, %.critedge
  %.not49 = phi i1 [ true, %.preheader ], [ false, %.critedge ]
  %indvars.iv51 = phi i64 [ 0, %.preheader ], [ 1, %.critedge ]
  %17 = getelementptr inbounds nuw [2 x %struct.HEVCLayerContext], ptr %15, i64 0, i64 %indvars.iv51
  br label %19

18:                                               ; preds = %19
  %indvars.iv.next = add nuw nsw i64 %indvars.iv, 1
  %exitcond = icmp eq i64 %indvars.iv.next, 32
  br i1 %exitcond, label %.critedge, label %19, !llvm.loop !244

19:                                               ; preds = %16, %18
  %indvars.iv = phi i64 [ 0, %16 ], [ %indvars.iv.next, %18 ]
  %20 = tail call ptr @av_frame_alloc() #15
  %21 = getelementptr inbounds nuw [32 x %struct.HEVCFrame], ptr %17, i64 0, i64 %indvars.iv, i32 1
  store ptr %20, ptr %21, align 8, !tbaa !97
  %.not43 = icmp eq ptr %20, null
  br i1 %.not43, label %.loopexit, label %18

.critedge:                                        ; preds = %18
  br i1 %.not49, label %16, label %.critedge46, !llvm.loop !245

.critedge46:                                      ; preds = %.critedge
  %22 = tail call ptr @av_md5_alloc() #15
  %23 = getelementptr inbounds nuw i8, ptr %3, i64 8576
  store ptr %22, ptr %23, align 8, !tbaa !246
  %.not44 = icmp eq ptr %22, null
  br i1 %.not44, label %.loopexit, label %24

24:                                               ; preds = %.critedge46
  %25 = getelementptr inbounds nuw i8, ptr %3, i64 15248
  tail call void @ff_bswapdsp_init(ptr noundef nonnull %25) #15
  %26 = getelementptr inbounds nuw i8, ptr %3, i64 716088
  store ptr %0, ptr %26, align 8, !tbaa !247
  %27 = getelementptr inbounds nuw i8, ptr %3, i64 11620
  store i32 0, ptr %27, align 4, !tbaa !122
  %28 = getelementptr inbounds nuw i8, ptr %3, i64 7848
  tail call void @ff_h2645_sei_reset(ptr noundef nonnull %28) #15
  br label %.loopexit

.loopexit:                                        ; preds = %19, %.critedge46, %7, %1, %24
  %.036 = phi i32 [ 0, %24 ], [ -12, %1 ], [ -12, %7 ], [ -12, %.critedge46 ], [ -12, %19 ]
  ret i32 %.036
}